target datalayout = "e-m:e-p270:32:32-p271:32:32-p272:64:64-i64:64-i128:128-f80:128-n8:16:32:64-S128"
target triple = "x86_64-pc-linux-gnu"

%struct._zval_struct = type { %union._zend_value, %union.anon, %union.anon.2 }
%union._zend_value = type { i64 }
%union.anon = type { i32 }
%union.anon.2 = type { i32 }
%struct._zend_execute_data = type { ptr, ptr, ptr, ptr, %struct._zval_struct, ptr, ptr, ptr, ptr }

@.str.6 = private unnamed_addr constant [7 x i8] c"stream\00", align 1

; Function Attrs: nounwind uwtable
define hidden void @zif_stream_set_blocking(ptr noundef %0, ptr noundef %1) #0 {
  %3 = alloca ptr, align 8
  %4 = alloca ptr, align 8
  %5 = alloca ptr, align 8
  %6 = alloca i1, align 1
  %7 = alloca ptr, align 8
  %8 = alloca ptr, align 8
  %9 = alloca ptr, align 8
  %10 = alloca i8, align 1
  %11 = alloca i32, align 4
  %12 = alloca i8, align 1
  %13 = alloca ptr, align 8
  %14 = alloca ptr, align 8
  %15 = alloca ptr, align 8
  %16 = alloca ptr, align 8
  %17 = alloca ptr, align 8
  %18 = alloca i8, align 1
  %19 = alloca i32, align 4
  %20 = alloca i1, align 1
  %21 = alloca ptr, align 8
  %22 = alloca ptr, align 8
  %23 = alloca i8, align 1
  %24 = alloca ptr, align 8
  %25 = alloca ptr, align 8
  %26 = alloca ptr, align 8
  %27 = alloca i8, align 1
  %28 = alloca ptr, align 8
  %29 = alloca i32, align 4
  %30 = alloca i32, align 4
  %31 = alloca i32, align 4
  %32 = alloca i32, align 4
  %33 = alloca i32, align 4
  %34 = alloca ptr, align 8
  %35 = alloca ptr, align 8
  %36 = alloca i32, align 4
  %37 = alloca ptr, align 8
  %38 = alloca i8, align 1
  %39 = alloca i8, align 1
  %40 = alloca i32, align 4
  store ptr %0, ptr %24, align 8
  store ptr %1, ptr %25, align 8
  br label %41

41:                                               ; preds = %2
  store i32 0, ptr %29, align 4
  store i32 2, ptr %30, align 4
  store i32 2, ptr %31, align 4
  %42 = load ptr, ptr %24, align 8
  %43 = getelementptr inbounds %struct._zend_execute_data, ptr %42, i32 0, i32 4
  %44 = getelementptr inbounds %struct._zval_struct, ptr %43, i32 0, i32 2
  %45 = load i32, ptr %44, align 4
  store i32 %45, ptr %32, align 4
  store i32 0, ptr %33, align 4
  store ptr null, ptr %35, align 8
  store i32 0, ptr %36, align 4
  store ptr null, ptr %37, align 8
  store i8 0, ptr %38, align 1
  store i8 0, ptr %39, align 1
  store i32 0, ptr %40, align 4
  br label %46

46:                                               ; preds = %41
  %47 = load i32, ptr %32, align 4
  %48 = load i32, ptr %30, align 4
  %49 = icmp ult i32 %47, %48
  %50 = xor i1 %49, true
  %51 = xor i1 %50, true
  %52 = zext i1 %51 to i32
  %53 = sext i32 %52 to i64
  %54 = icmp ne i64 %53, 0
  br i1 %54, label %64, label %55

55:                                               ; preds = %46
  %56 = load i32, ptr %32, align 4
  %57 = load i32, ptr %31, align 4
  %58 = icmp ugt i32 %56, %57
  %59 = xor i1 %58, true
  %60 = xor i1 %59, true
  %61 = zext i1 %60 to i32
  %62 = sext i32 %61 to i64
  %63 = icmp ne i64 %62, 0
  br i1 %63, label %64, label %67

64:                                               ; preds = %55, %46
  %65 = load i32, ptr %30, align 4
  %66 = load i32, ptr %31, align 4
  call void @zend_wrong_parameters_count_error(i32 noundef %65, i32 noundef %66)
  store i32 1, ptr %40, align 4
  br label %259

67:                                               ; preds = %55
  %68 = load ptr, ptr %24, align 8
  %69 = getelementptr inbounds %struct._zval_struct, ptr %68, i64 4
  store ptr %69, ptr %34, align 8
  %70 = load i32, ptr %33, align 4
  %71 = add i32 %70, 1
  store i32 %71, ptr %33, align 4
  %72 = load i32, ptr %33, align 4
  %73 = load i32, ptr %30, align 4
  %74 = icmp ule i32 %72, %73
  br i1 %74, label %80, label %75

75:                                               ; preds = %67
  %76 = load i8, ptr %39, align 1
  %77 = trunc i8 %76 to i1
  %78 = zext i1 %77 to i32
  %79 = icmp eq i32 %78, 1
  br label %80

80:                                               ; preds = %75, %67
  %81 = phi i1 [ true, %67 ], [ %79, %75 ]
  call void @llvm.assume(i1 %81)
  %82 = load i32, ptr %33, align 4
  %83 = load i32, ptr %30, align 4
  %84 = icmp ugt i32 %82, %83
  br i1 %84, label %90, label %85

85:                                               ; preds = %80
  %86 = load i8, ptr %39, align 1
  %87 = trunc i8 %86 to i1
  %88 = zext i1 %87 to i32
  %89 = icmp eq i32 %88, 0
  br label %90

90:                                               ; preds = %85, %80
  %91 = phi i1 [ true, %80 ], [ %89, %85 ]
  call void @llvm.assume(i1 %91)
  %92 = load i8, ptr %39, align 1
  %93 = trunc i8 %92 to i1
  br i1 %93, label %94, label %105

94:                                               ; preds = %90
  %95 = load i32, ptr %33, align 4
  %96 = load i32, ptr %32, align 4
  %97 = icmp ugt i32 %95, %96
  %98 = xor i1 %97, true
  %99 = xor i1 %98, true
  %100 = zext i1 %99 to i32
  %101 = sext i32 %100 to i64
  %102 = icmp ne i64 %101, 0
  br i1 %102, label %103, label %104

103:                                              ; preds = %94
  br label %259

104:                                              ; preds = %94
  br label %105

105:                                              ; preds = %104, %90
  %106 = load ptr, ptr %34, align 8
  %107 = getelementptr inbounds %struct._zval_struct, ptr %106, i32 1
  store ptr %107, ptr %34, align 8
  %108 = load ptr, ptr %34, align 8
  store ptr %108, ptr %35, align 8
  %109 = load ptr, ptr %35, align 8
  store ptr %109, ptr %21, align 8
  store ptr %26, ptr %22, align 8
  store i8 0, ptr %23, align 1
  %110 = load ptr, ptr %21, align 8
  store ptr %110, ptr %13, align 8
  %111 = load ptr, ptr %13, align 8
  %112 = getelementptr inbounds %struct._zval_struct, ptr %111, i32 0, i32 1
  %113 = load i8, ptr %112, align 8
  %114 = zext i8 %113 to i32
  %115 = icmp eq i32 %114, 9
  br i1 %115, label %116, label %119

116:                                              ; preds = %105
  %117 = load ptr, ptr %21, align 8
  %118 = load ptr, ptr %22, align 8
  store ptr %117, ptr %118, align 8
  br label %132

119:                                              ; preds = %105
  %120 = load i8, ptr %23, align 1
  %121 = trunc i8 %120 to i1
  br i1 %121, label %122, label %131

122:                                              ; preds = %119
  %123 = load ptr, ptr %21, align 8
  store ptr %123, ptr %14, align 8
  %124 = load ptr, ptr %14, align 8
  %125 = getelementptr inbounds %struct._zval_struct, ptr %124, i32 0, i32 1
  %126 = load i8, ptr %125, align 8
  %127 = zext i8 %126 to i32
  %128 = icmp eq i32 %127, 1
  br i1 %128, label %129, label %131

129:                                              ; preds = %122
  %130 = load ptr, ptr %22, align 8
  store ptr null, ptr %130, align 8
  br label %132

131:                                              ; preds = %122, %119
  store i1 false, ptr %20, align 1
  br label %133

132:                                              ; preds = %129, %116
  store i1 true, ptr %20, align 1
  br label %133

133:                                              ; preds = %132, %131
  %134 = load i1, ptr %20, align 1
  %135 = xor i1 %134, true
  %136 = xor i1 %135, true
  %137 = xor i1 %136, true
  %138 = zext i1 %137 to i32
  %139 = sext i32 %138 to i64
  %140 = icmp ne i64 %139, 0
  br i1 %140, label %141, label %142

141:                                              ; preds = %133
  store i32 14, ptr %36, align 4
  store i32 9, ptr %40, align 4
  br label %259

142:                                              ; preds = %133
  %143 = load i32, ptr %33, align 4
  %144 = add i32 %143, 1
  store i32 %144, ptr %33, align 4
  %145 = load i32, ptr %33, align 4
  %146 = load i32, ptr %30, align 4
  %147 = icmp ule i32 %145, %146
  br i1 %147, label %153, label %148

148:                                              ; preds = %142
  %149 = load i8, ptr %39, align 1
  %150 = trunc i8 %149 to i1
  %151 = zext i1 %150 to i32
  %152 = icmp eq i32 %151, 1
  br label %153

153:                                              ; preds = %148, %142
  %154 = phi i1 [ true, %142 ], [ %152, %148 ]
  call void @llvm.assume(i1 %154)
  %155 = load i32, ptr %33, align 4
  %156 = load i32, ptr %30, align 4
  %157 = icmp ugt i32 %155, %156
  br i1 %157, label %163, label %158

158:                                              ; preds = %153
  %159 = load i8, ptr %39, align 1
  %160 = trunc i8 %159 to i1
  %161 = zext i1 %160 to i32
  %162 = icmp eq i32 %161, 0
  br label %163

163:                                              ; preds = %158, %153
  %164 = phi i1 [ true, %153 ], [ %162, %158 ]
  call void @llvm.assume(i1 %164)
  %165 = load i8, ptr %39, align 1
  %166 = trunc i8 %165 to i1
  br i1 %166, label %167, label %178

167:                                              ; preds = %163
  %168 = load i32, ptr %33, align 4
  %169 = load i32, ptr %32, align 4
  %170 = icmp ugt i32 %168, %169
  %171 = xor i1 %170, true
  %172 = xor i1 %171, true
  %173 = zext i1 %172 to i32
  %174 = sext i32 %173 to i64
  %175 = icmp ne i64 %174, 0
  br i1 %175, label %176, label %177

176:                                              ; preds = %167
  br label %259

177:                                              ; preds = %167
  br label %178

178:                                              ; preds = %177, %163
  %179 = load ptr, ptr %34, align 8
  %180 = getelementptr inbounds %struct._zval_struct, ptr %179, i32 1
  store ptr %180, ptr %34, align 8
  %181 = load ptr, ptr %34, align 8
  store ptr %181, ptr %35, align 8
  %182 = load ptr, ptr %35, align 8
  %183 = load i32, ptr %33, align 4
  store ptr %182, ptr %15, align 8
  store ptr %27, ptr %16, align 8
  store ptr %38, ptr %17, align 8
  store i8 0, ptr %18, align 1
  store i32 %183, ptr %19, align 4
  %184 = load ptr, ptr %15, align 8
  %185 = load ptr, ptr %16, align 8
  %186 = load ptr, ptr %17, align 8
  %187 = load i8, ptr %18, align 1
  %188 = trunc i8 %187 to i1
  %189 = load i32, ptr %19, align 4
  store ptr %184, ptr %7, align 8
  store ptr %185, ptr %8, align 8
  store ptr %186, ptr %9, align 8
  %190 = zext i1 %188 to i8
  store i8 %190, ptr %10, align 1
  store i32 %189, ptr %11, align 4
  store i8 0, ptr %12, align 1
  %191 = load i8, ptr %10, align 1
  %192 = trunc i8 %191 to i1
  br i1 %192, label %193, label %195

193:                                              ; preds = %178
  %194 = load ptr, ptr %9, align 8
  store i8 0, ptr %194, align 1
  br label %195

195:                                              ; preds = %193, %178
  %196 = load ptr, ptr %7, align 8
  store ptr %196, ptr %3, align 8
  %197 = load ptr, ptr %3, align 8
  %198 = getelementptr inbounds %struct._zval_struct, ptr %197, i32 0, i32 1
  %199 = load i8, ptr %198, align 8
  %200 = zext i8 %199 to i32
  %201 = icmp eq i32 %200, 3
  br i1 %201, label %202, label %204

202:                                              ; preds = %195
  %203 = load ptr, ptr %8, align 8
  store i8 1, ptr %203, align 1
  br label %240

204:                                              ; preds = %195
  %205 = load ptr, ptr %7, align 8
  store ptr %205, ptr %4, align 8
  %206 = load ptr, ptr %4, align 8
  %207 = getelementptr inbounds %struct._zval_struct, ptr %206, i32 0, i32 1
  %208 = load i8, ptr %207, align 8
  %209 = zext i8 %208 to i32
  %210 = icmp eq i32 %209, 2
  br i1 %210, label %211, label %213

211:                                              ; preds = %204
  %212 = load ptr, ptr %8, align 8
  store i8 0, ptr %212, align 1
  br label %239

213:                                              ; preds = %204
  %214 = load i8, ptr %10, align 1
  %215 = trunc i8 %214 to i1
  br i1 %215, label %216, label %226

216:                                              ; preds = %213
  %217 = load ptr, ptr %7, align 8
  store ptr %217, ptr %5, align 8
  %218 = load ptr, ptr %5, align 8
  %219 = getelementptr inbounds %struct._zval_struct, ptr %218, i32 0, i32 1
  %220 = load i8, ptr %219, align 8
  %221 = zext i8 %220 to i32
  %222 = icmp eq i32 %221, 1
  br i1 %222, label %223, label %226

223:                                              ; preds = %216
  %224 = load ptr, ptr %9, align 8
  store i8 1, ptr %224, align 1
  %225 = load ptr, ptr %8, align 8
  store i8 0, ptr %225, align 1
  br label %239

226:                                              ; preds = %216, %213
  %227 = load i8, ptr %12, align 1
  %228 = trunc i8 %227 to i1
  br i1 %228, label %229, label %234

229:                                              ; preds = %226
  %230 = load ptr, ptr %7, align 8
  %231 = load ptr, ptr %8, align 8
  %232 = load i32, ptr %11, align 4
  %233 = call zeroext i1 @zend_flf_parse_arg_bool_slow(ptr noundef %230, ptr noundef %231, i32 noundef %232) #9
  store i1 %233, ptr %6, align 1
  br label %241

234:                                              ; preds = %226
  %235 = load ptr, ptr %7, align 8
  %236 = load ptr, ptr %8, align 8
  %237 = load i32, ptr %11, align 4
  %238 = call zeroext i1 @zend_parse_arg_bool_slow(ptr noundef %235, ptr noundef %236, i32 noundef %237) #9
  store i1 %238, ptr %6, align 1
  br label %241

239:                                              ; preds = %223, %211
  br label %240

240:                                              ; preds = %239, %202
  store i1 true, ptr %6, align 1
  br label %241

241:                                              ; preds = %240, %234, %229
  %242 = load i1, ptr %6, align 1
  %243 = xor i1 %242, true
  %244 = xor i1 %243, true
  %245 = xor i1 %244, true
  %246 = zext i1 %245 to i32
  %247 = sext i32 %246 to i64
  %248 = icmp ne i64 %247, 0
  br i1 %248, label %249, label %250

249:                                              ; preds = %241
  store i32 2, ptr %36, align 4
  store i32 9, ptr %40, align 4
  br label %259

250:                                              ; preds = %241
  %251 = load i32, ptr %33, align 4
  %252 = load i32, ptr %31, align 4
  %253 = icmp eq i32 %251, %252
  br i1 %253, label %257, label %254

254:                                              ; preds = %250
  %255 = load i32, ptr %31, align 4
  %256 = icmp eq i32 %255, -1
  br label %257

257:                                              ; preds = %254, %250
  %258 = phi i1 [ true, %250 ], [ %256, %254 ]
  call void @llvm.assume(i1 %258)
  br label %259

259:                                              ; preds = %257, %249, %176, %141, %103, %64
  %260 = load i32, ptr %40, align 4
  %261 = icmp ne i32 %260, 0
  %262 = xor i1 %261, true
  %263 = xor i1 %262, true
  %264 = zext i1 %263 to i32
  %265 = sext i32 %264 to i64
  %266 = icmp ne i64 %265, 0
  br i1 %266, label %267, label %273

267:                                              ; preds = %259
  %268 = load i32, ptr %40, align 4
  %269 = load i32, ptr %33, align 4
  %270 = load ptr, ptr %37, align 8
  %271 = load i32, ptr %36, align 4
  %272 = load ptr, ptr %35, align 8
  call void @zend_wrong_parameter_error(i32 noundef %268, i32 noundef %269, ptr noundef %270, i32 noundef %271, ptr noundef %272)
  br label %303

273:                                              ; preds = %259
  br label %274

274:                                              ; preds = %273
  br label %275

275:                                              ; preds = %274
  %276 = load ptr, ptr %26, align 8
  %277 = call i32 @php_file_le_stream()
  %278 = call i32 @php_file_le_pstream()
  %279 = call ptr @zend_fetch_resource2_ex(ptr noundef %276, ptr noundef @.str.6, i32 noundef %277, i32 noundef %278)
  store ptr %279, ptr %28, align 8
  %280 = icmp eq ptr %279, null
  br i1 %280, label %281, label %282

281:                                              ; preds = %275
  br label %303

282:                                              ; preds = %275
  br label %283

283:                                              ; preds = %282
  %284 = load ptr, ptr %28, align 8
  %285 = load i8, ptr %27, align 1
  %286 = trunc i8 %285 to i1
  %287 = zext i1 %286 to i32
  %288 = call i32 @_php_stream_set_option(ptr noundef %284, i32 noundef 1, i32 noundef %287, ptr noundef null)
  %289 = icmp eq i32 %288, -1
  br i1 %289, label %290, label %297

290:                                              ; preds = %283
  br label %291

291:                                              ; preds = %290
  br label %292

292:                                              ; preds = %291
  %293 = load ptr, ptr %25, align 8
  %294 = getelementptr inbounds %struct._zval_struct, ptr %293, i32 0, i32 1
  store i32 2, ptr %294, align 8
  br label %295

295:                                              ; preds = %292
  br label %303

296:                                              ; No predecessors!
  br label %297

297:                                              ; preds = %296, %283
  br label %298

298:                                              ; preds = %297
  br label %299

299:                                              ; preds = %298
  %300 = load ptr, ptr %25, align 8
  %301 = getelementptr inbounds %struct._zval_struct, ptr %300, i32 0, i32 1
  store i32 3, ptr %301, align 8
  br label %302

302:                                              ; preds = %299
  br label %303

303:                                              ; preds = %302, %295, %281, %267
  ret void
}