; Function Attrs: nounwind uwtable
define hidden void @zif_stream_set_blocking(ptr noundef %0, ptr nocapture noundef writeonly %1) local_unnamed_addr #0 {
  %3 = alloca i8, align 1
  %4 = getelementptr inbounds i8, ptr %0, i64 44
  %5 = load i32, ptr %4, align 4
  %.not = icmp eq i32 %5, 2
  br i1 %.not, label %7, label %6

6:                                                ; preds = %2
  tail call void @zend_wrong_parameters_count_error(i32 noundef 2, i32 noundef 2) #10
  br label %.thread110

7:                                                ; preds = %2
  %8 = getelementptr inbounds i8, ptr %0, i64 80
  %9 = getelementptr inbounds i8, ptr %0, i64 88
  %10 = load i8, ptr %9, align 8
  %.not91 = icmp eq i8 %10, 9
  br i1 %.not91, label %11, label %.thread110

11:                                               ; preds = %7
  %12 = getelementptr inbounds i8, ptr %0, i64 104
  %13 = load i8, ptr %12, align 8
  switch i8 %13, label %15 [
    i8 3, label %.thread106
    i8 2, label %14
  ]

14:                                               ; preds = %11
  br label %.thread106

.thread106:                                       ; preds = %14, %11
  %storemerge = phi i8 [ 0, %14 ], [ 1, %11 ]
  store i8 %storemerge, ptr %3, align 1
  br label %.thread123

15:                                               ; preds = %11
  %16 = getelementptr inbounds i8, ptr %0, i64 96
  %17 = call zeroext i1 @zend_parse_arg_bool_slow(ptr noundef nonnull %16, ptr noundef nonnull %3, i32 noundef 2) #10
  %.fr = freeze i1 %17
  br i1 %.fr, label %.thread123, label %.thread110

.thread110:                                       ; preds = %15, %7, %6
  %.0120 = phi i32 [ 9, %7 ], [ 1, %6 ], [ 9, %15 ]
  %.083119 = phi i32 [ 14, %7 ], [ 0, %6 ], [ 2, %15 ]
  %.084118 = phi ptr [ %8, %7 ], [ null, %6 ], [ %16, %15 ]
  %.085117 = phi i32 [ 1, %7 ], [ 0, %6 ], [ 2, %15 ]
  call void @zend_wrong_parameter_error(i32 noundef %.0120, i32 noundef %.085117, ptr noundef null, i32 noundef %.083119, ptr noundef %.084118) #10
  br label %31

.thread123:                                       ; preds = %15, %.thread106
  %18 = call i32 @php_file_le_stream() #10
  %19 = call i32 @php_file_le_pstream() #10
  %20 = call ptr @zend_fetch_resource2_ex(ptr noundef nonnull %8, ptr noundef nonnull @.str.6, i32 noundef %18, i32 noundef %19) #10
  %21 = icmp eq ptr %20, null
  br i1 %21, label %31, label %22

22:                                               ; preds = %.thread123
  %23 = load i8, ptr %3, align 1
  %24 = and i8 %23, 1
  %25 = zext nneg i8 %24 to i32
  %26 = call i32 @_php_stream_set_option(ptr noundef nonnull %20, i32 noundef 1, i32 noundef %25, ptr noundef null) #10
  %27 = icmp eq i32 %26, -1
  %28 = getelementptr inbounds i8, ptr %1, i64 8
  br i1 %27, label %29, label %30

29:                                               ; preds = %22
  store i32 2, ptr %28, align 8
  br label %31

30:                                               ; preds = %22
  store i32 3, ptr %28, align 8
  br label %31

31:                                               ; preds = %.thread123, %30, %29, %.thread110
  ret void
}